target datalayout = "e-m:e-p270:32:32-p271:32:32-p272:64:64-i64:64-i128:128-f80:128-n8:16:32:64-S128"
target triple = "x86_64-unknown-linux-gnu"

%struct.hdr_iter = type { ptr, i32, i64, i64, i64, i64, i64, i64, i64, i64, i64, %union.anon, ptr }
%union.anon = type { %struct.hdr_iter_linear }
%struct.hdr_iter_linear = type { i64, i64, i64, i64 }

; Function Attrs: nounwind uwtable
define internal void @update_iterated_values(ptr noundef %iter, i64 noundef %new_value_iterated_to) #0 {
entry:
  %iter.addr = alloca ptr, align 8
  %new_value_iterated_to.addr = alloca i64, align 8
  store ptr %iter, ptr %iter.addr, align 8
  store i64 %new_value_iterated_to, ptr %new_value_iterated_to.addr, align 8
  %0 = load ptr, ptr %iter.addr, align 8
  %value_iterated_to = getelementptr inbounds %struct.hdr_iter, ptr %0, i32 0, i32 10
  %1 = load i64, ptr %value_iterated_to, align 8
  %2 = load ptr, ptr %iter.addr, align 8
  %value_iterated_from = getelementptr inbounds %struct.hdr_iter, ptr %2, i32 0, i32 9
  store i64 %1, ptr %value_iterated_from, align 8
  %3 = load i64, ptr %new_value_iterated_to.addr, align 8
  %4 = load ptr, ptr %iter.addr, align 8
  %value_iterated_to1 = getelementptr inbounds %struct.hdr_iter, ptr %4, i32 0, i32 10
  store i64 %3, ptr %value_iterated_to1, align 8
  ret void
}

; Function Attrs: nounwind uwtable
define internal zeroext i1 @all_values_iter_next(ptr noundef %iter) #0 {
entry:
  %iter.addr = alloca ptr, align 8
  %result = alloca i8, align 1
  store ptr %iter, ptr %iter.addr, align 8
  %0 = load ptr, ptr %iter.addr, align 8
  %call = call zeroext i1 @move_next(ptr noundef %0)
  %frombool = zext i1 %call to i8
  store i8 %frombool, ptr %result, align 1
  %1 = load i8, ptr %result, align 1
  %tobool = trunc i8 %1 to i1
  br i1 %tobool, label %if.then, label %if.end

if.then:                                          ; preds = %entry
  %2 = load ptr, ptr %iter.addr, align 8
  %3 = load ptr, ptr %iter.addr, align 8
  %value = getelementptr inbounds %struct.hdr_iter, ptr %3, i32 0, i32 5
  %4 = load i64, ptr %value, align 8
  call void @update_iterated_values(ptr noundef %2, i64 noundef %4)
  br label %if.end

if.end:                                           ; preds = %if.then, %entry
  %5 = load i8, ptr %result, align 1
  %tobool1 = trunc i8 %5 to i1
  ret i1 %tobool1
}