; Function Attrs: mustprogress nofree norecurse nosync nounwind willreturn memory(read, argmem: readwrite, inaccessiblemem: none) uwtable
define internal noundef zeroext i1 @all_values_iter_next(ptr nocapture noundef %iter) #15 {
entry:
  %call = tail call fastcc zeroext i1 @move_next(ptr noundef %iter)
  br i1 %call, label %if.then, label %if.end

if.then:                                          ; preds = %entry
  %value = getelementptr inbounds i8, ptr %iter, i64 40
  %0 = load i64, ptr %value, align 8
  %value_iterated_to.i = getelementptr inbounds i8, ptr %iter, i64 80
  %1 = load i64, ptr %value_iterated_to.i, align 8
  %value_iterated_from.i = getelementptr inbounds i8, ptr %iter, i64 72
  store i64 %1, ptr %value_iterated_from.i, align 8
  store i64 %0, ptr %value_iterated_to.i, align 8
  br label %if.end

if.end:                                           ; preds = %if.then, %entry
  ret i1 %call
}